; ModuleID = 'bench/folly/original/FollyMemset.cpp.ll'
source_filename = "bench/folly/original/FollyMemset.cpp.ll"
target datalayout = "e-m:e-p270:32:32-p271:32:32-p272:64:64-i64:64-i128:128-f80:128-n8:16:32:64-S128"
target triple = "x86_64-unknown-linux-gnu"

; Function Attrs: mustprogress nofree norecurse nosync nounwind willreturn memory(argmem: write) uwtable
define noundef ptr @__folly_memset(ptr noundef returned writeonly %dest, i32 noundef %ch, i64 noundef %count) local_unnamed_addr #0 {
entry:
  %0 = trunc i32 %ch to i8
  tail call void @llvm.memset.p0.i64(ptr align 1 %dest, i8 %0, i64 %count, i1 false)
  ret ptr %dest
}

; Function Attrs: mustprogress nocallback nofree nounwind willreturn memory(argmem: write)
declare void @llvm.memset.p0.i64(ptr nocapture writeonly, i8, i64, i1 immarg) #1


!llvm.module.flags = !{!0, !1, !2, !3, !4, !5, !6}

!0 = !{i32 7, !"Dwarf Version", i32 5}
!1 = !{i32 2, !"Debug Info Version", i32 3}
!2 = !{i32 1, !"wchar_size", i32 4}
!3 = !{i32 7, !"openmp", i32 51}
!4 = !{i32 8, !"PIC Level", i32 2}
!5 = !{i32 7, !"uwtable", i32 2}
!6 = !{i32 7, !"debug-info-assignment-tracking", i1 true}
